target datalayout = "e-m:e-p270:32:32-p271:32:32-p272:64:64-i64:64-i128:128-f80:128-n8:16:32:64-S128"
target triple = "x86_64-pc-linux-gnu"

%struct.config_generic = type { ptr, i32, i32, ptr, ptr, i32, i32, i32, i32, i32, i32, i32, i32, i32, ptr, ptr, %struct.dlist_node, %struct.slist_node, %struct.slist_node, ptr, ptr, i32 }
%struct.dlist_node = type { ptr, ptr }
%struct.slist_node = type { ptr }
%struct.HASH_SEQ_STATUS = type { ptr, i32, ptr, i8, i32 }
%struct.GUCHashEntry = type { ptr, ptr }

@guc_hashtab = internal global ptr null, align 8
@reporting_enabled = internal global i8 0, align 1
@whereToSendOutput = external global i32, align 4
@.str.41 = private unnamed_addr constant [15 x i8] c"in_hot_standby\00", align 1
@.str.42 = private unnamed_addr constant [5 x i8] c"true\00", align 1

; Function Attrs: nounwind uwtable
define dso_local i32 @set_config_option(ptr noundef %0, ptr noundef %1, i32 noundef %2, i32 noundef %3, i32 noundef %4, i1 noundef zeroext %5, i32 noundef %6, i1 noundef zeroext %7) #0 {
  %9 = alloca ptr, align 8
  %10 = alloca ptr, align 8
  %11 = alloca i32, align 4
  %12 = alloca i32, align 4
  %13 = alloca i32, align 4
  %14 = alloca i8, align 1
  %15 = alloca i32, align 4
  %16 = alloca i8, align 1
  %17 = alloca i32, align 4
  store ptr %0, ptr %9, align 8
  store ptr %1, ptr %10, align 8
  store i32 %2, ptr %11, align 4
  store i32 %3, ptr %12, align 4
  store i32 %4, ptr %13, align 4
  %18 = zext i1 %5 to i8
  store i8 %18, ptr %14, align 1
  store i32 %6, ptr %15, align 4
  %19 = zext i1 %7 to i8
  store i8 %19, ptr %16, align 1
  call void @llvm.lifetime.start.p0(i64 4, ptr %17) #16
  %20 = load i32, ptr %12, align 4
  %21 = icmp uge i32 %20, 11
  br i1 %21, label %25, label %22

22:                                               ; preds = %8
  %23 = load i32, ptr %12, align 4
  %24 = icmp eq i32 %23, 9
  br i1 %24, label %25, label %27

25:                                               ; preds = %22, %8
  %26 = call i32 @GetUserId()
  store i32 %26, ptr %17, align 4
  br label %28

27:                                               ; preds = %22
  store i32 10, ptr %17, align 4
  br label %28

28:                                               ; preds = %27, %25
  %29 = load ptr, ptr %9, align 8
  %30 = load ptr, ptr %10, align 8
  %31 = load i32, ptr %11, align 4
  %32 = load i32, ptr %12, align 4
  %33 = load i32, ptr %17, align 4
  %34 = load i32, ptr %13, align 4
  %35 = load i8, ptr %14, align 1, !range !4, !noundef !5
  %36 = trunc i8 %35 to i1
  %37 = load i32, ptr %15, align 4
  %38 = load i8, ptr %16, align 1, !range !4, !noundef !5
  %39 = trunc i8 %38 to i1
  %40 = call i32 @set_config_with_handle(ptr noundef %29, ptr noundef null, ptr noundef %30, i32 noundef %31, i32 noundef %32, i32 noundef %33, i32 noundef %34, i1 noundef zeroext %36, i32 noundef %37, i1 noundef zeroext %39)
  call void @llvm.lifetime.end.p0(i64 4, ptr %17) #16
  ret i32 %40
}

; Function Attrs: nounwind uwtable
define dso_local void @SetConfigOption(ptr noundef %0, ptr noundef %1, i32 noundef %2, i32 noundef %3) #0 {
  %5 = alloca ptr, align 8
  %6 = alloca ptr, align 8
  %7 = alloca i32, align 4
  %8 = alloca i32, align 4
  store ptr %0, ptr %5, align 8
  store ptr %1, ptr %6, align 8
  store i32 %2, ptr %7, align 4
  store i32 %3, ptr %8, align 4
  %9 = load ptr, ptr %5, align 8
  %10 = load ptr, ptr %6, align 8
  %11 = load i32, ptr %7, align 4
  %12 = load i32, ptr %8, align 4
  %13 = call i32 @set_config_option(ptr noundef %9, ptr noundef %10, i32 noundef %11, i32 noundef %12, i32 noundef 0, i1 noundef zeroext true, i32 noundef 0, i1 noundef zeroext false)
  ret void
}

; Function Attrs: nounwind uwtable
define dso_local void @BeginReportingGUCOptions() #0 {
  %1 = alloca %struct.HASH_SEQ_STATUS, align 8
  %2 = alloca ptr, align 8
  %3 = alloca i32, align 4
  %4 = alloca ptr, align 8
  call void @llvm.lifetime.start.p0(i64 32, ptr %1) #16
  call void @llvm.lifetime.start.p0(i64 8, ptr %2) #16
  %5 = load i32, ptr @whereToSendOutput, align 4
  %6 = icmp ne i32 %5, 2
  br i1 %6, label %7, label %8

7:                                                ; preds = %0
  store i32 1, ptr %3, align 4
  br label %29

8:                                                ; preds = %0
  store i8 1, ptr @reporting_enabled, align 1
  %9 = call zeroext i1 @RecoveryInProgress()
  br i1 %9, label %10, label %11

10:                                               ; preds = %8
  call void @SetConfigOption(ptr noundef @.str.41, ptr noundef @.str.42, i32 noundef 0, i32 noundef 10)
  br label %11

11:                                               ; preds = %10, %8
  %12 = load ptr, ptr @guc_hashtab, align 8
  call void @hash_seq_init(ptr noundef %1, ptr noundef %12)
  br label %13

13:                                               ; preds = %27, %11
  %14 = call ptr @hash_seq_search(ptr noundef %1)
  store ptr %14, ptr %2, align 8
  %15 = icmp ne ptr %14, null
  br i1 %15, label %16, label %28

16:                                               ; preds = %13
  call void @llvm.lifetime.start.p0(i64 8, ptr %4) #16
  %17 = load ptr, ptr %2, align 8
  %18 = getelementptr inbounds nuw %struct.GUCHashEntry, ptr %17, i32 0, i32 1
  %19 = load ptr, ptr %18, align 8
  store ptr %19, ptr %4, align 8
  %20 = load ptr, ptr %4, align 8
  %21 = getelementptr inbounds nuw %struct.config_generic, ptr %20, i32 0, i32 5
  %22 = load i32, ptr %21, align 8
  %23 = and i32 %22, 64
  %24 = icmp ne i32 %23, 0
  br i1 %24, label %25, label %27

25:                                               ; preds = %16
  %26 = load ptr, ptr %4, align 8
  call void @ReportGUCOption(ptr noundef %26)
  br label %27

27:                                               ; preds = %25, %16
  call void @llvm.lifetime.end.p0(i64 8, ptr %4) #16
  br label %13, !llvm.loop !36

28:                                               ; preds = %13
  store i32 0, ptr %3, align 4
  br label %29

29:                                               ; preds = %28, %7
  call void @llvm.lifetime.end.p0(i64 8, ptr %2) #16
  call void @llvm.lifetime.end.p0(i64 32, ptr %1) #16
  %30 = load i32, ptr %3, align 4
  switch i32 %30, label %32 [
    i32 0, label %31
    i32 1, label %31
  ]

31:                                               ; preds = %29, %29
  ret void

32:                                               ; preds = %29
  unreachable
}