; Function Attrs: nounwind uwtable
define dso_local void @BeginReportingGUCOptions() local_unnamed_addr #0 {
  %1 = alloca %struct.HASH_SEQ_STATUS, align 8
  call void @llvm.lifetime.start.p0(i64 32, ptr nonnull %1) #29
  %2 = load i32, ptr @whereToSendOutput, align 4
  %.not = icmp eq i32 %2, 2
  br i1 %.not, label %3, label %.loopexit

3:                                                ; preds = %0
  store i1 true, ptr @reporting_enabled, align 1
  %4 = tail call zeroext i1 @RecoveryInProgress() #29
  br i1 %4, label %5, label %7

5:                                                ; preds = %3
  %6 = tail call range(i32 -1, 2) i32 @set_config_with_handle(ptr noundef nonnull @.str.41, ptr noundef null, ptr noundef nonnull @.str.42, i32 noundef 0, i32 noundef 10, i32 noundef 10, i32 noundef 0, i1 noundef zeroext true, i32 noundef 0, i1 noundef zeroext false)
  br label %7

7:                                                ; preds = %5, %3
  %8 = load ptr, ptr @guc_hashtab, align 8
  call void @hash_seq_init(ptr noundef nonnull %1, ptr noundef %8) #29
  %9 = call ptr @hash_seq_search(ptr noundef nonnull %1) #29
  %.not35 = icmp eq ptr %9, null
  br i1 %.not35, label %.loopexit, label %.lr.ph

.lr.ph:                                           ; preds = %7, %17
  %10 = phi ptr [ %18, %17 ], [ %9, %7 ]
  %11 = getelementptr inbounds nuw i8, ptr %10, i64 8
  %12 = load ptr, ptr %11, align 8
  %13 = getelementptr inbounds nuw i8, ptr %12, i64 32
  %14 = load i32, ptr %13, align 8
  %15 = and i32 %14, 64
  %.not4 = icmp eq i32 %15, 0
  br i1 %.not4, label %17, label %16

16:                                               ; preds = %.lr.ph
  call fastcc void @ReportGUCOption(ptr noundef nonnull %12)
  br label %17

17:                                               ; preds = %16, %.lr.ph
  %18 = call ptr @hash_seq_search(ptr noundef nonnull %1) #29
  %.not3 = icmp eq ptr %18, null
  br i1 %.not3, label %.loopexit, label %.lr.ph, !llvm.loop !37

.loopexit:                                        ; preds = %17, %7, %0
  call void @llvm.lifetime.end.p0(i64 32, ptr nonnull %1) #29
  ret void
}